
kernel8-32.elf:     file format elf32-littlearm


Disassembly of section .text:

00008000 <_start>:
    8000:	e3a0d302 	mov	sp, #134217728	; 0x8000000
    8004:	ee110f10 	mrc	15, 0, r0, cr1, cr0, {0}
    8008:	e3c00b02 	bic	r0, r0, #2048	; 0x800
    800c:	e3c00004 	bic	r0, r0, #4
    8010:	e3c00a01 	bic	r0, r0, #4096	; 0x1000
    8014:	e3c00001 	bic	r0, r0, #1
    8018:	ee010f10 	mcr	15, 0, r0, cr1, cr0, {0}
    801c:	e10f0000 	mrs	r0, CPSR
    8020:	e220001a 	eor	r0, r0, #26
    8024:	e310001f 	tst	r0, #31
    8028:	e3c0001f 	bic	r0, r0, #31
    802c:	e38000d3 	orr	r0, r0, #211	; 0xd3
    8030:	1a000004 	bne	8048 <_start+0x48>
    8034:	e3800c01 	orr	r0, r0, #256	; 0x100
    8038:	e28fe00c 	add	lr, pc, #12
    803c:	e16ff000 	msr	SPSR_fsxc, r0
    8040:	e12ef30e 	.word	0xe12ef30e
    8044:	e160006e 	.word	0xe160006e
    8048:	e121f000 	msr	CPSR_c, r0
    804c:	e3a00000 	mov	r0, #0
    8050:	ee0c0f10 	mcr	15, 0, r0, cr12, cr0, {0}

00008054 <enter_critical_section>:
    8054:	e10f0000 	mrs	r0, CPSR
    8058:	f10c00c0 	cpsid	if
    805c:	e20000c0 	and	r0, r0, #192	; 0xc0
    8060:	eb000077 	bl	8244 <main>

00008064 <hang>:
    8064:	eafffffe 	b	8064 <hang>

00008068 <dummy>:
    8068:	e12fff1e 	bx	lr

0000806c <start_mmu>:
    806c:	e3a02000 	mov	r2, #0
    8070:	ee072f17 	mcr	15, 0, r2, cr7, cr7, {0}
    8074:	ee082f17 	mcr	15, 0, r2, cr8, cr7, {0}
    8078:	ee072f9a 	mcr	15, 0, r2, cr7, cr10, {4}
    807c:	e3e02000 	mvn	r2, #0
    8080:	e3c2200c 	bic	r2, r2, #12
    8084:	ee032f10 	mcr	15, 0, r2, cr3, cr0, {0}
    8088:	ee020f10 	mcr	15, 0, r0, cr2, cr0, {0}
    808c:	ee020f30 	mcr	15, 0, r0, cr2, cr0, {1}
    8090:	ee112f10 	mrc	15, 0, r2, cr1, cr0, {0}
    8094:	e1822001 	orr	r2, r2, r1
    8098:	ee012f10 	mcr	15, 0, r2, cr1, cr0, {0}
    809c:	e12fff1e 	bx	lr

000080a0 <PUT32(unsigned int, unsigned int)>:
    80a0:	e5801000 	str	r1, [r0]
    80a4:	e12fff1e 	bx	lr

000080a8 <GET32(unsigned int)>:
    80a8:	e5900000 	ldr	r0, [r0]
    80ac:	e12fff1e 	bx	lr

000080b0 <GPIO_SET(unsigned int)>:
    80b0:	e30c3350 	movw	r3, #50000	; 0xc350
    80b4:	e3403000 	movt	r3, #0
    80b8:	e5933000 	ldr	r3, [r3]
    80bc:	e583001c 	str	r0, [r3, #28]
    80c0:	e12fff1e 	bx	lr

000080c4 <GPIO_CLR(unsigned int)>:
    80c4:	e30c3350 	movw	r3, #50000	; 0xc350
    80c8:	e3403000 	movt	r3, #0
    80cc:	e5933000 	ldr	r3, [r3]
    80d0:	e5830028 	str	r0, [r3, #40]	; 0x28
    80d4:	e12fff1e 	bx	lr

000080d8 <GPIO_PUT(unsigned int, unsigned int)>:
    80d8:	e30c3350 	movw	r3, #50000	; 0xc350
    80dc:	e3403000 	movt	r3, #0
    80e0:	e5933000 	ldr	r3, [r3]
    80e4:	e583001c 	str	r0, [r3, #28]
    80e8:	e5831028 	str	r1, [r3, #40]	; 0x28
    80ec:	e12fff1e 	bx	lr

000080f0 <GPIO_PUT2(unsigned int, unsigned int)>:
    80f0:	e30c3350 	movw	r3, #50000	; 0xc350
    80f4:	e3403000 	movt	r3, #0
    80f8:	e5933000 	ldr	r3, [r3]
    80fc:	e5831028 	str	r1, [r3, #40]	; 0x28
    8100:	e583001c 	str	r0, [r3, #28]
    8104:	e12fff1e 	bx	lr

00008108 <GPIO_GET0()>:
    8108:	e30c3350 	movw	r3, #50000	; 0xc350
    810c:	e3403000 	movt	r3, #0
    8110:	e5933000 	ldr	r3, [r3]
    8114:	e5930034 	ldr	r0, [r3, #52]	; 0x34
    8118:	e12fff1e 	bx	lr

0000811c <GPIO_GETA()>:
    811c:	e30c3350 	movw	r3, #50000	; 0xc350
    8120:	e3403000 	movt	r3, #0
    8124:	e3a00cff 	mov	r0, #65280	; 0xff00
    8128:	e34000ff 	movt	r0, #255	; 0xff
    812c:	e5933000 	ldr	r3, [r3]
    8130:	e5933034 	ldr	r3, [r3, #52]	; 0x34
    8134:	e0000403 	and	r0, r0, r3, lsl #8
    8138:	e7e73453 	ubfx	r3, r3, #8, #8
    813c:	e1800003 	orr	r0, r0, r3
    8140:	e6ff0070 	uxth	r0, r0
    8144:	e12fff1e 	bx	lr

00008148 <GetAddress()>:
    8148:	e30c3350 	movw	r3, #50000	; 0xc350
    814c:	e3403000 	movt	r3, #0
    8150:	e3a02801 	mov	r2, #65536	; 0x10000
    8154:	e3a01802 	mov	r1, #131072	; 0x20000
    8158:	e5930000 	ldr	r0, [r3]
    815c:	e580201c 	str	r2, [r0, #28]
    8160:	e5801028 	str	r1, [r0, #40]	; 0x28
    8164:	e320f000 	nop	{0}
    8168:	e5933000 	ldr	r3, [r3]
    816c:	e5930034 	ldr	r0, [r3, #52]	; 0x34
    8170:	e583101c 	str	r1, [r3, #28]
    8174:	e5832028 	str	r2, [r3, #40]	; 0x28
    8178:	e6ff0070 	uxth	r0, r0
    817c:	e12fff1e 	bx	lr

00008180 <GetData()>:
    8180:	e320f000 	nop	{0}
    8184:	e30c3350 	movw	r3, #50000	; 0xc350
    8188:	e3403000 	movt	r3, #0
    818c:	e5933000 	ldr	r3, [r3]
    8190:	e5930034 	ldr	r0, [r3, #52]	; 0x34
    8194:	e6ef0070 	uxtb	r0, r0
    8198:	e12fff1e 	bx	lr

0000819c <UNTIL_SLTSL_LOW()>:
    819c:	e30c3350 	movw	r3, #50000	; 0xc350
    81a0:	e3403000 	movt	r3, #0
    81a4:	e5932000 	ldr	r2, [r3]
    81a8:	e5923034 	ldr	r3, [r2, #52]	; 0x34
    81ac:	e3130b02 	tst	r3, #2048	; 0x800
    81b0:	0afffffc 	beq	81a8 <UNTIL_SLTSL_LOW()+0xc>
    81b4:	e3a01000 	mov	r1, #0
    81b8:	e3a03702 	mov	r3, #524288	; 0x80000
    81bc:	e582101c 	str	r1, [r2, #28]
    81c0:	e5823028 	str	r3, [r2, #40]	; 0x28
    81c4:	e12fff1e 	bx	lr

000081c8 <mmu_section(unsigned int, unsigned int, unsigned int)>:
    81c8:	e1a00a20 	lsr	r0, r0, #20
    81cc:	e1a01a21 	lsr	r1, r1, #20
    81d0:	e1a00100 	lsl	r0, r0, #2
    81d4:	e3822b03 	orr	r2, r2, #3072	; 0xc00
    81d8:	e3803901 	orr	r3, r0, #16384	; 0x4000
    81dc:	e3822002 	orr	r2, r2, #2
    81e0:	e1a01a01 	lsl	r1, r1, #20
    81e4:	e3a00000 	mov	r0, #0
    81e8:	e1811002 	orr	r1, r1, r2
    81ec:	e5831000 	str	r1, [r3]
    81f0:	e12fff1e 	bx	lr

000081f4 <mmu_small(unsigned int, unsigned int, unsigned int, unsigned int)>:
    81f4:	e52de004 	push	{lr}		; (str lr, [sp, #-4]!)
    81f8:	e1a0c520 	lsr	ip, r0, #10
    81fc:	e1a0ea20 	lsr	lr, r0, #20
    8200:	e3c33fff 	bic	r3, r3, #1020	; 0x3fc
    8204:	e1a0010e 	lsl	r0, lr, #2
    8208:	e3c33003 	bic	r3, r3, #3
    820c:	e20ccfff 	and	ip, ip, #1020	; 0x3fc
    8210:	e18cc003 	orr	ip, ip, r3
    8214:	e3800901 	orr	r0, r0, #16384	; 0x4000
    8218:	e3c11eff 	bic	r1, r1, #4080	; 0xff0
    821c:	e3822eff 	orr	r2, r2, #4080	; 0xff0
    8220:	e3822002 	orr	r2, r2, #2
    8224:	e3c1100f 	bic	r1, r1, #15
    8228:	e3833001 	orr	r3, r3, #1
    822c:	e1811002 	orr	r1, r1, r2
    8230:	e5803000 	str	r3, [r0]
    8234:	e3a00000 	mov	r0, #0
    8238:	e58c1000 	str	r1, [ip]
    823c:	e49df004 	pop	{pc}		; (ldr pc, [sp], #4)

00008240 <fiq_vector()>:
    8240:	eafffffe 	b	8240 <fiq_vector()>

00008244 <main>:
    8244:	e92d43f0 	push	{r4, r5, r6, r7, r8, r9, lr}
    8248:	e3088330 	movw	r8, #33584	; 0x8330
    824c:	e3408000 	movt	r8, #0
    8250:	e30c5350 	movw	r5, #50000	; 0xc350
    8254:	e3405000 	movt	r5, #0
    8258:	e24dd024 	sub	sp, sp, #36	; 0x24
    825c:	e3097249 	movw	r7, #37449	; 0x9249
    8260:	e3447924 	movt	r7, #18724	; 0x4924
    8264:	e8b8000f 	ldm	r8!, {r0, r1, r2, r3}
    8268:	e1a0900d 	mov	r9, sp
    826c:	e595c000 	ldr	ip, [r5]
    8270:	e3086350 	movw	r6, #33616	; 0x8350
    8274:	e3406000 	movt	r6, #0
    8278:	e8a9000f 	stmia	r9!, {r0, r1, r2, r3}
    827c:	e3e01000 	mvn	r1, #0
    8280:	e3a02000 	mov	r2, #0
    8284:	e34021d2 	movt	r2, #466	; 0x1d2
    8288:	e58c7000 	str	r7, [ip]
    828c:	e30f3fff 	movw	r3, #65535	; 0xffff
    8290:	e3403009 	movt	r3, #9
    8294:	e58c7004 	str	r7, [ip, #4]
    8298:	e3a04801 	mov	r4, #65536	; 0x10000
    829c:	e58c7008 	str	r7, [ip, #8]
    82a0:	e3a0e802 	mov	lr, #131072	; 0x20000
    82a4:	e58c201c 	str	r2, [ip, #28]
    82a8:	e3a07000 	mov	r7, #0
    82ac:	e58c3028 	str	r3, [ip, #40]	; 0x28
    82b0:	e58c101c 	str	r1, [ip, #28]
    82b4:	e898000f 	ldm	r8, {r0, r1, r2, r3}
    82b8:	e889000f 	stm	r9, {r0, r1, r2, r3}
    82bc:	e3a02702 	mov	r2, #524288	; 0x80000
    82c0:	e59c3034 	ldr	r3, [ip, #52]	; 0x34
    82c4:	e1e03003 	mvn	r3, r3
    82c8:	e3130b02 	tst	r3, #2048	; 0x800
    82cc:	0afffffb 	beq	82c0 <main+0x7c>
    82d0:	e3130c01 	tst	r3, #256	; 0x100
    82d4:	0afffff9 	beq	82c0 <main+0x7c>
    82d8:	e58c401c 	str	r4, [ip, #28]
    82dc:	e58ce028 	str	lr, [ip, #40]	; 0x28
    82e0:	e320f000 	nop	{0}
    82e4:	e595c000 	ldr	ip, [r5]
    82e8:	e28d0020 	add	r0, sp, #32
    82ec:	e59c3034 	ldr	r3, [ip, #52]	; 0x34
    82f0:	e58ce01c 	str	lr, [ip, #28]
    82f4:	e58c4028 	str	r4, [ip, #40]	; 0x28
    82f8:	e7e216d3 	ubfx	r1, r3, #13, #3
    82fc:	e7ec3053 	ubfx	r3, r3, #0, #13
    8300:	e0801101 	add	r1, r0, r1, lsl #2
    8304:	e0863003 	add	r3, r6, r3
    8308:	e5111020 	ldr	r1, [r1, #-32]	; 0xffffffe0
    830c:	e7d33001 	ldrb	r3, [r3, r1]
    8310:	e3833702 	orr	r3, r3, #524288	; 0x80000
    8314:	e58c301c 	str	r3, [ip, #28]
    8318:	e59c3034 	ldr	r3, [ip, #52]	; 0x34
    831c:	e3130b02 	tst	r3, #2048	; 0x800
    8320:	0afffffc 	beq	8318 <main+0xd4>
    8324:	e58c701c 	str	r7, [ip, #28]
    8328:	e58c2028 	str	r2, [ip, #40]	; 0x28
    832c:	eaffffe3 	b	82c0 <main+0x7c>
