
kernel.elf:     file format elf32-littlearm


Disassembly of section .text:

00008000 <_start>:
    8000:	e3a0d302 	mov	sp, #134217728	; 0x8000000
    8004:	ee110f10 	mrc	15, 0, r0, cr1, cr0, {0}
    8008:	e3c00b02 	bic	r0, r0, #2048	; 0x800
    800c:	e3c00004 	bic	r0, r0, #4
    8010:	e3c00a01 	bic	r0, r0, #4096	; 0x1000
    8014:	e3c00001 	bic	r0, r0, #1
    8018:	ee010f10 	mcr	15, 0, r0, cr1, cr0, {0}

0000801c <enter_critical_section>:
    801c:	e10f0000 	mrs	r0, CPSR
    8020:	f10c00c0 	cpsid	if
    8024:	e20000c0 	and	r0, r0, #192	; 0xc0
    8028:	eb00006b 	bl	81dc <main>

0000802c <hang>:
    802c:	eafffffe 	b	802c <hang>

00008030 <dummy>:
    8030:	e12fff1e 	bx	lr

00008034 <start_mmu>:
    8034:	e3a02000 	mov	r2, #0
    8038:	ee072f17 	mcr	15, 0, r2, cr7, cr7, {0}
    803c:	ee082f17 	mcr	15, 0, r2, cr8, cr7, {0}
    8040:	ee072f9a 	mcr	15, 0, r2, cr7, cr10, {4}
    8044:	e3e02000 	mvn	r2, #0
    8048:	e3c2200c 	bic	r2, r2, #12
    804c:	ee032f10 	mcr	15, 0, r2, cr3, cr0, {0}
    8050:	ee020f10 	mcr	15, 0, r0, cr2, cr0, {0}
    8054:	ee020f30 	mcr	15, 0, r0, cr2, cr0, {1}
    8058:	ee112f10 	mrc	15, 0, r2, cr1, cr0, {0}
    805c:	e1822001 	orr	r2, r2, r1
    8060:	ee012f10 	mcr	15, 0, r2, cr1, cr0, {0}
    8064:	e12fff1e 	bx	lr

00008068 <PUT32(unsigned int, unsigned int)>:
    8068:	e5801000 	str	r1, [r0]
    806c:	e12fff1e 	bx	lr

00008070 <GET32(unsigned int)>:
    8070:	e5900000 	ldr	r0, [r0]
    8074:	e12fff1e 	bx	lr

00008078 <GPIO_SET(unsigned int)>:
    8078:	e59f3008 	ldr	r3, [pc, #8]	; 8088 <GPIO_SET(unsigned int)+0x10>
    807c:	e5933000 	ldr	r3, [r3]
    8080:	e583001c 	str	r0, [r3, #28]
    8084:	e12fff1e 	bx	lr
    8088:	002083e8 	.word	0x002083e8

0000808c <GPIO_CLR(unsigned int)>:
    808c:	e59f3008 	ldr	r3, [pc, #8]	; 809c <GPIO_CLR(unsigned int)+0x10>
    8090:	e5933000 	ldr	r3, [r3]
    8094:	e5830028 	str	r0, [r3, #40]	; 0x28
    8098:	e12fff1e 	bx	lr
    809c:	002083e8 	.word	0x002083e8

000080a0 <GPIO_PUT(unsigned int, unsigned int)>:
    80a0:	e59f300c 	ldr	r3, [pc, #12]	; 80b4 <GPIO_PUT(unsigned int, unsigned int)+0x14>
    80a4:	e5933000 	ldr	r3, [r3]
    80a8:	e583001c 	str	r0, [r3, #28]
    80ac:	e5831028 	str	r1, [r3, #40]	; 0x28
    80b0:	e12fff1e 	bx	lr
    80b4:	002083e8 	.word	0x002083e8

000080b8 <GPIO_GET0()>:
    80b8:	e59f3008 	ldr	r3, [pc, #8]	; 80c8 <GPIO_GET0()+0x10>
    80bc:	e5933000 	ldr	r3, [r3]
    80c0:	e5930034 	ldr	r0, [r3, #52]	; 0x34
    80c4:	e12fff1e 	bx	lr
    80c8:	002083e8 	.word	0x002083e8

000080cc <GPIO_GETA()>:
    80cc:	e59f301c 	ldr	r3, [pc, #28]	; 80f0 <GPIO_GETA()+0x24>
    80d0:	e59f001c 	ldr	r0, [pc, #28]	; 80f4 <GPIO_GETA()+0x28>
    80d4:	e5933000 	ldr	r3, [r3]
    80d8:	e5933034 	ldr	r3, [r3, #52]	; 0x34
    80dc:	e0000403 	and	r0, r0, r3, lsl #8
    80e0:	e6ff3073 	uxth	r3, r3
    80e4:	e1800423 	orr	r0, r0, r3, lsr #8
    80e8:	e6ff0070 	uxth	r0, r0
    80ec:	e12fff1e 	bx	lr
    80f0:	002083e8 	.word	0x002083e8
    80f4:	00ffff00 	.word	0x00ffff00

000080f8 <GetAddress()>:
    80f8:	e3a02801 	mov	r2, #65536	; 0x10000
    80fc:	e3a01802 	mov	r1, #131072	; 0x20000
    8100:	e59f3024 	ldr	r3, [pc, #36]	; 812c <GetAddress()+0x34>
    8104:	e5930000 	ldr	r0, [r3]
    8108:	e580201c 	str	r2, [r0, #28]
    810c:	e5801028 	str	r1, [r0, #40]	; 0x28
    8110:	e1a00000 	nop			; (mov r0, r0)
    8114:	e5933000 	ldr	r3, [r3]
    8118:	e5930034 	ldr	r0, [r3, #52]	; 0x34
    811c:	e583101c 	str	r1, [r3, #28]
    8120:	e6ff0070 	uxth	r0, r0
    8124:	e5832028 	str	r2, [r3, #40]	; 0x28
    8128:	e12fff1e 	bx	lr
    812c:	002083e8 	.word	0x002083e8

00008130 <GetData()>:
    8130:	e3a00802 	mov	r0, #131072	; 0x20000
    8134:	e3a01801 	mov	r1, #65536	; 0x10000
    8138:	e59f301c 	ldr	r3, [pc, #28]	; 815c <GetData()+0x2c>
    813c:	e5932000 	ldr	r2, [r3]
    8140:	e582001c 	str	r0, [r2, #28]
    8144:	e5821028 	str	r1, [r2, #40]	; 0x28
    8148:	e1a00000 	nop			; (mov r0, r0)
    814c:	e5933000 	ldr	r3, [r3]
    8150:	e5930034 	ldr	r0, [r3, #52]	; 0x34
    8154:	e6ef0070 	uxtb	r0, r0
    8158:	e12fff1e 	bx	lr
    815c:	002083e8 	.word	0x002083e8

00008160 <mmu_section(unsigned int, unsigned int, unsigned int)>:
    8160:	e1a00a20 	lsr	r0, r0, #20
    8164:	e1a01a21 	lsr	r1, r1, #20
    8168:	e3822b03 	orr	r2, r2, #3072	; 0xc00
    816c:	e3822002 	orr	r2, r2, #2
    8170:	e1a00100 	lsl	r0, r0, #2
    8174:	e1a01a01 	lsl	r1, r1, #20
    8178:	e3800901 	orr	r0, r0, #16384	; 0x4000
    817c:	e1811002 	orr	r1, r1, r2
    8180:	e5801000 	str	r1, [r0]
    8184:	e3a00000 	mov	r0, #0
    8188:	e12fff1e 	bx	lr

0000818c <mmu_small(unsigned int, unsigned int, unsigned int, unsigned int)>:
    818c:	e52de004 	push	{lr}		; (str lr, [sp, #-4]!)
    8190:	e1a0c520 	lsr	ip, r0, #10
    8194:	e382eeff 	orr	lr, r2, #4080	; 0xff0
    8198:	e3c33fff 	bic	r3, r3, #1020	; 0x3fc
    819c:	e1a02a20 	lsr	r2, r0, #20
    81a0:	e3c11eff 	bic	r1, r1, #4080	; 0xff0
    81a4:	e3c33003 	bic	r3, r3, #3
    81a8:	e38ee002 	orr	lr, lr, #2
    81ac:	e1a00102 	lsl	r0, r2, #2
    81b0:	e3c1100f 	bic	r1, r1, #15
    81b4:	e20ccfff 	and	ip, ip, #1020	; 0x3fc
    81b8:	e3802901 	orr	r2, r0, #16384	; 0x4000
    81bc:	e18cc003 	orr	ip, ip, r3
    81c0:	e181100e 	orr	r1, r1, lr
    81c4:	e3833001 	orr	r3, r3, #1
    81c8:	e5823000 	str	r3, [r2]
    81cc:	e3a00000 	mov	r0, #0
    81d0:	e58c1000 	str	r1, [ip]
    81d4:	e49df004 	pop	{pc}		; (ldr pc, [sp], #4)

000081d8 <fiq_vector()>:
    81d8:	eafffffe 	b	81d8 <fiq_vector()>

000081dc <main>:
    81dc:	e92d41f0 	push	{r4, r5, r6, r7, r8, lr}
    81e0:	e59fe1c4 	ldr	lr, [pc, #452]	; 83ac <main+0x1d0>
    81e4:	e3a00882 	mov	r0, #8519680	; 0x820000
    81e8:	e3a06901 	mov	r6, #16384	; 0x4000
    81ec:	e1a0500e 	mov	r5, lr
    81f0:	e3a0c000 	mov	ip, #0
    81f4:	e59f41b4 	ldr	r4, [pc, #436]	; 83b0 <main+0x1d4>
    81f8:	e59f21b4 	ldr	r2, [pc, #436]	; 83b4 <main+0x1d8>
    81fc:	e5943000 	ldr	r3, [r4]
    8200:	e59f11b0 	ldr	r1, [pc, #432]	; 83b8 <main+0x1dc>
    8204:	e5832000 	str	r2, [r3]
    8208:	e24dd010 	sub	sp, sp, #16
    820c:	e5832004 	str	r2, [r3, #4]
    8210:	e5832008 	str	r2, [r3, #8]
    8214:	e59f21a0 	ldr	r2, [pc, #416]	; 83bc <main+0x1e0>
    8218:	e28d7010 	add	r7, sp, #16
    821c:	e583001c 	str	r0, [r3, #28]
    8220:	e5831028 	str	r1, [r3, #40]	; 0x28
    8224:	e892000f 	ldm	r2, {r0, r1, r2, r3}
    8228:	e907000f 	stmdb	r7, {r0, r1, r2, r3}
    822c:	e586e000 	str	lr, [r6]
    8230:	e28cc601 	add	ip, ip, #1048576	; 0x100000
    8234:	e1a03a2c 	lsr	r3, ip, #20
    8238:	e1a03103 	lsl	r3, r3, #2
    823c:	e3833901 	orr	r3, r3, #16384	; 0x4000
    8240:	e18c2005 	orr	r2, ip, r5
    8244:	e37c0601 	cmn	ip, #1048576	; 0x100000
    8248:	e5832000 	str	r2, [r3]
    824c:	1afffff7 	bne	8230 <main+0x54>
    8250:	e3a00901 	mov	r0, #16384	; 0x4000
    8254:	e59f2164 	ldr	r2, [pc, #356]	; 83c0 <main+0x1e4>
    8258:	e59f3164 	ldr	r3, [pc, #356]	; 83c4 <main+0x1e8>
    825c:	e5802800 	str	r2, [r0, #2048]	; 0x800
    8260:	e5803808 	str	r3, [r0, #2056]	; 0x808
    8264:	e59f115c 	ldr	r1, [pc, #348]	; 83c8 <main+0x1ec>
    8268:	ebffff71 	bl	8034 <start_mmu>
    826c:	e3a06000 	mov	r6, #0
    8270:	e3a00801 	mov	r0, #65536	; 0x10000
    8274:	e3a01802 	mov	r1, #131072	; 0x20000
    8278:	e59f514c 	ldr	r5, [pc, #332]	; 83cc <main+0x1f0>
    827c:	e59fe14c 	ldr	lr, [pc, #332]	; 83d0 <main+0x1f4>
    8280:	e59fc14c 	ldr	ip, [pc, #332]	; 83d4 <main+0x1f8>
    8284:	e5942000 	ldr	r2, [r4]
    8288:	e5923034 	ldr	r3, [r2, #52]	; 0x34
    828c:	e1e03003 	mvn	r3, r3
    8290:	e3130b02 	tst	r3, #2048	; 0x800
    8294:	0afffffb 	beq	8288 <main+0xac>
    8298:	e3130c01 	tst	r3, #256	; 0x100
    829c:	e582001c 	str	r0, [r2, #28]
    82a0:	e5821028 	str	r1, [r2, #40]	; 0x28
    82a4:	0a000019 	beq	8310 <main+0x134>
    82a8:	e1a00000 	nop			; (mov r0, r0)
    82ac:	e5943000 	ldr	r3, [r4]
    82b0:	e28d8010 	add	r8, sp, #16
    82b4:	e5932034 	ldr	r2, [r3, #52]	; 0x34
    82b8:	e583101c 	str	r1, [r3, #28]
    82bc:	e1a07622 	lsr	r7, r2, #12
    82c0:	e207700c 	and	r7, r7, #12
    82c4:	e0887007 	add	r7, r8, r7
    82c8:	e5177010 	ldr	r7, [r7, #-16]
    82cc:	e002200e 	and	r2, r2, lr
    82d0:	e0852002 	add	r2, r5, r2
    82d4:	e7d22007 	ldrb	r2, [r2, r7]
    82d8:	e5830028 	str	r0, [r3, #40]	; 0x28
    82dc:	e3822702 	orr	r2, r2, #524288	; 0x80000
    82e0:	e583201c 	str	r2, [r3, #28]
    82e4:	e5932034 	ldr	r2, [r3, #52]	; 0x34
    82e8:	e3120b02 	tst	r2, #2048	; 0x800
    82ec:	1a000004 	bne	8304 <main+0x128>
    82f0:	e1a00000 	nop			; (mov r0, r0)
    82f4:	e5943000 	ldr	r3, [r4]
    82f8:	e5932034 	ldr	r2, [r3, #52]	; 0x34
    82fc:	e3120b02 	tst	r2, #2048	; 0x800
    8300:	0afffffa 	beq	82f0 <main+0x114>
    8304:	e583601c 	str	r6, [r3, #28]
    8308:	e583c028 	str	ip, [r3, #40]	; 0x28
    830c:	eaffffdc 	b	8284 <main+0xa8>
    8310:	e1a00000 	nop			; (mov r0, r0)
    8314:	e5943000 	ldr	r3, [r4]
    8318:	e5932034 	ldr	r2, [r3, #52]	; 0x34
    831c:	e583101c 	str	r1, [r3, #28]
    8320:	e6ff2072 	uxth	r2, r2
    8324:	e5830028 	str	r0, [r3, #40]	; 0x28
    8328:	e583101c 	str	r1, [r3, #28]
    832c:	e5830028 	str	r0, [r3, #40]	; 0x28
    8330:	e1a00000 	nop			; (mov r0, r0)
    8334:	e5943000 	ldr	r3, [r4]
    8338:	e5937034 	ldr	r7, [r3, #52]	; 0x34
    833c:	e583101c 	str	r1, [r3, #28]
    8340:	e5830028 	str	r0, [r3, #40]	; 0x28
    8344:	e1a00000 	nop			; (mov r0, r0)
    8348:	e5943000 	ldr	r3, [r4]
    834c:	e5937034 	ldr	r7, [r3, #52]	; 0x34
    8350:	e583101c 	str	r1, [r3, #28]
    8354:	e5830028 	str	r0, [r3, #40]	; 0x28
    8358:	e1a00000 	nop			; (mov r0, r0)
    835c:	e5947000 	ldr	r7, [r4]
    8360:	e3520a06 	cmp	r2, #24576	; 0x6000
    8364:	e5973034 	ldr	r3, [r7, #52]	; 0x34
    8368:	06ef3073 	uxtbeq	r3, r3
    836c:	01a03703 	lsleq	r3, r3, #14
    8370:	058d3004 	streq	r3, [sp, #4]
    8374:	0a000003 	beq	8388 <main+0x1ac>
    8378:	e3520a07 	cmp	r2, #28672	; 0x7000
    837c:	06ef3073 	uxtbeq	r3, r3
    8380:	01a03703 	lsleq	r3, r3, #14
    8384:	058d3008 	streq	r3, [sp, #8]
    8388:	e5973034 	ldr	r3, [r7, #52]	; 0x34
    838c:	e3130b02 	tst	r3, #2048	; 0x800
    8390:	1affffbb 	bne	8284 <main+0xa8>
    8394:	e1a00000 	nop			; (mov r0, r0)
    8398:	e5943000 	ldr	r3, [r4]
    839c:	e5933034 	ldr	r3, [r3, #52]	; 0x34
    83a0:	e3130b02 	tst	r3, #2048	; 0x800
    83a4:	0afffffa 	beq	8394 <main+0x1b8>
    83a8:	eaffffb5 	b	8284 <main+0xa8>
    83ac:	00018c02 	.word	0x00018c02
    83b0:	002083e8 	.word	0x002083e8
    83b4:	49249249 	.word	0x49249249
    83b8:	0009ffff 	.word	0x0009ffff
    83bc:	000083d8 	.word	0x000083d8
    83c0:	20010c02 	.word	0x20010c02
    83c4:	20210c02 	.word	0x20210c02
    83c8:	00001005 	.word	0x00001005
    83cc:	000083e8 	.word	0x000083e8
    83d0:	00003fff 	.word	0x00003fff
    83d4:	000800ff 	.word	0x000800ff
